; ModuleID = '54/775.c'
source_filename = "54/775.c"
target datalayout = "e-m:e-p270:32:32-p271:32:32-p272:64:64-i64:64-f80:128-n8:16:32:64-S128"
target triple = "x86_64-pc-linux-gnu"

@.str = private unnamed_addr constant [5 x i8] c"%d%d\00", align 1
@.str.1 = private unnamed_addr constant [3 x i8] c"%d\00", align 1

; Function Attrs: noinline nounwind uwtable
define dso_local i32 @main() #0 {
  %1 = alloca i32, align 4
  %2 = alloca i32, align 4
  %3 = alloca i32, align 4
  %4 = alloca i32, align 4
  %5 = alloca i32, align 4
  %6 = alloca i32, align 4
  %7 = alloca i32, align 4
  store i32 0, i32* %1, align 4
  %8 = call i32 (i8*, ...) @__isoc99_scanf(i8* getelementptr inbounds ([5 x i8], [5 x i8]* @.str, i64 0, i64 0), i32* %3, i32* %2)
  %9 = load i32, i32* %3, align 4
  %10 = load i32, i32* %2, align 4
  %11 = mul nsw i32 %9, %10
  store i32 %11, i32* %4, align 4
  br label %12

12:                                               ; preds = %47, %0
  store i32 1, i32* %5, align 4
  store i32 0, i32* %6, align 4
  %13 = load i32, i32* %4, align 4
  store i32 %13, i32* %7, align 4
  br label %14

14:                                               ; preds = %39, %12
  %15 = load i32, i32* %6, align 4
  %16 = load i32, i32* %3, align 4
  %17 = icmp slt i32 %15, %16
  br i1 %17, label %18, label %40

18:                                               ; preds = %14
  %19 = load i32, i32* %7, align 4
  %20 = load i32, i32* %3, align 4
  %21 = srem i32 %19, %20
  %22 = load i32, i32* %2, align 4
  %23 = icmp eq i32 %21, %22
  br i1 %23, label %24, label %38

24:                                               ; preds = %18
  %25 = load i32, i32* %7, align 4
  %26 = load i32, i32* %2, align 4
  %27 = sub nsw i32 %25, %26
  %28 = load i32, i32* %3, align 4
  %29 = sdiv i32 %27, %28
  %30 = load i32, i32* %2, align 4
  %31 = add nsw i32 %29, %30
  %32 = load i32, i32* %7, align 4
  %33 = sub nsw i32 %32, %31
  store i32 %33, i32* %7, align 4
  %34 = icmp sgt i32 %33, 0
  br i1 %34, label %35, label %38

35:                                               ; preds = %24
  %36 = load i32, i32* %6, align 4
  %37 = add nsw i32 %36, 1
  store i32 %37, i32* %6, align 4
  br label %39

38:                                               ; preds = %24, %18
  store i32 0, i32* %5, align 4
  br label %40

39:                                               ; preds = %35
  br label %14

40:                                               ; preds = %38, %14
  %41 = load i32, i32* %5, align 4
  %42 = icmp ne i32 %41, 0
  br i1 %42, label %43, label %46

43:                                               ; preds = %40
  %44 = load i32, i32* %4, align 4
  %45 = call i32 (i8*, ...) @printf(i8* getelementptr inbounds ([3 x i8], [3 x i8]* @.str.1, i64 0, i64 0), i32 %44)
  br label %50

46:                                               ; preds = %40
  br label %47

47:                                               ; preds = %46
  %48 = load i32, i32* %4, align 4
  %49 = add nsw i32 %48, 1
  store i32 %49, i32* %4, align 4
  br label %12

50:                                               ; preds = %43
  ret i32 0
}

declare dso_local i32 @__isoc99_scanf(i8*, ...) #1

declare dso_local i32 @printf(i8*, ...) #1


!llvm.module.flags = !{!0}
!llvm.ident = !{!1}

!0 = !{i32 1, !"wchar_size", i32 4}
!1 = !{!"clang version 10.0.0-4ubuntu1 "}
